; Function Attrs: nounwind uwtable
define hidden ptr @py_func_si(ptr readnone captures(none) %0, ptr noundef %1) #0 {
  %3 = alloca ptr, align 8
  %4 = alloca i32, align 4
  call void @llvm.lifetime.start.p0(i64 8, ptr nonnull %3) #34
  call void @llvm.lifetime.start.p0(i64 4, ptr nonnull %4) #34
  %5 = call i32 (ptr, ptr, ...) @PyArg_ParseTuple(ptr noundef %1, ptr noundef nonnull @.str.11, ptr noundef nonnull %3, ptr noundef nonnull %4) #34
  %.not = icmp eq i32 %5, 0
  br i1 %.not, label %8, label %6

6:                                                ; preds = %2
  %7 = call ptr @Py_GetConstantBorrowed(i32 noundef 0) #34
  br label %8

8:                                                ; preds = %2, %6
  %.0 = phi ptr [ %7, %6 ], [ null, %2 ]
  call void @llvm.lifetime.end.p0(i64 4, ptr nonnull %4) #34
  call void @llvm.lifetime.end.p0(i64 8, ptr nonnull %3) #34
  ret ptr %.0
}